
../user/target/riscv64gc-unknown-none-elf/release/00hello_world:	file format elf64-littleriscv


Disassembly of section .text:

0000000080400000 <_start>:
80400000: 41 11        	addi	sp, sp, -16
80400002: 06 e4        	sd	ra, 8(sp)
80400004: 22 e0        	sd	s0, 0(sp)
80400006: 00 08        	addi	s0, sp, 16

0000000080400008 <.LBB0_3>:
80400008: 17 15 00 00  	auipc	a0, 1
8040000c: 13 05 05 0f  	addi	a0, a0, 240

0000000080400010 <.LBB0_4>:
80400010: 97 15 00 00  	auipc	a1, 1
80400014: 93 85 85 0e  	addi	a1, a1, 232
80400018: 63 f9 a5 00  	bgeu	a1, a0, 0x8040002a <.LBB0_4+0x1a>
8040001c: 13 86 15 00  	addi	a2, a1, 1
80400020: 23 80 05 00  	sb	zero, 0(a1)
80400024: b2 85        	mv	a1, a2
80400026: e3 6b a6 fe  	bltu	a2, a0, 0x8040001c <.LBB0_4+0xc>
8040002a: 97 00 00 00  	auipc	ra, 0
8040002e: e7 80 20 03  	jalr	50(ra)
80400032: 01 25        	sext.w	a0, a0
80400034: 93 08 d0 05  	addi	a7, zero, 93
80400038: 81 45        	mv	a1, zero
8040003a: 01 46        	mv	a2, zero
8040003c: 73 00 00 00  	ecall	

0000000080400040 <.LBB0_5>:
80400040: 17 15 00 00  	auipc	a0, 1
80400044: 13 05 85 07  	addi	a0, a0, 120

0000000080400048 <.LBB0_6>:
80400048: 17 16 00 00  	auipc	a2, 1
8040004c: 13 06 86 09  	addi	a2, a2, 152
80400050: ed 45        	addi	a1, zero, 27
80400052: 97 00 00 00  	auipc	ra, 0
80400056: e7 80 80 29  	jalr	664(ra)
8040005a: 00 00        	unimp	

000000008040005c <main>:
8040005c: 39 71        	addi	sp, sp, -64
8040005e: 06 fc        	sd	ra, 56(sp)
80400060: 22 f8        	sd	s0, 48(sp)
80400062: 80 00        	addi	s0, sp, 64

0000000080400064 <.LBB0_1>:
80400064: 17 15 00 00  	auipc	a0, 1
80400068: 13 05 45 d9  	addi	a0, a0, -620
8040006c: 23 30 a4 fc  	sd	a0, -64(s0)
80400070: 05 45        	addi	a0, zero, 1
80400072: 23 34 a4 fc  	sd	a0, -56(s0)
80400076: 23 38 04 fc  	sd	zero, -48(s0)

000000008040007a <.LBB0_2>:
8040007a: 17 15 00 00  	auipc	a0, 1
8040007e: 13 05 e5 d8  	addi	a0, a0, -626
80400082: 23 30 a4 fe  	sd	a0, -32(s0)
80400086: 23 34 04 fe  	sd	zero, -24(s0)
8040008a: 13 05 04 fc  	addi	a0, s0, -64
8040008e: 97 00 00 00  	auipc	ra, 0
80400092: e7 80 a0 15  	jalr	346(ra)
80400096: 73 00 20 10  	sret	
8040009a: 01 45        	mv	a0, zero
8040009c: 42 74        	ld	s0, 48(sp)
8040009e: e2 70        	ld	ra, 56(sp)
804000a0: 21 61        	addi	sp, sp, 64
804000a2: 82 80        	ret

00000000804000a4 <_ZN4core3ptr54drop_in_place$LT$$RF$mut$u20$user_lib..std..Stdout$GT$17h775fcdb2787ae973E.llvm.6036952923357010522>:
804000a4: 41 11        	addi	sp, sp, -16
804000a6: 06 e4        	sd	ra, 8(sp)
804000a8: 22 e0        	sd	s0, 0(sp)
804000aa: 00 08        	addi	s0, sp, 16
804000ac: 02 64        	ld	s0, 0(sp)
804000ae: a2 60        	ld	ra, 8(sp)
804000b0: 41 01        	addi	sp, sp, 16
804000b2: 82 80        	ret

00000000804000b4 <_ZN50_$LT$$RF$mut$u20$W$u20$as$u20$core..fmt..Write$GT$10write_char17h4db22e1fa943c349E.llvm.6036952923357010522>:
804000b4: 01 11        	addi	sp, sp, -32
804000b6: 06 ec        	sd	ra, 24(sp)
804000b8: 22 e8        	sd	s0, 16(sp)
804000ba: 00 10        	addi	s0, sp, 32
804000bc: 1b 85 05 00  	sext.w	a0, a1
804000c0: 13 06 00 08  	addi	a2, zero, 128
804000c4: 23 26 04 fe  	sw	zero, -20(s0)
804000c8: 63 76 c5 00  	bgeu	a0, a2, 0x804000d4 <_ZN50_$LT$$RF$mut$u20$W$u20$as$u20$core..fmt..Write$GT$10write_char17h4db22e1fa943c349E.llvm.6036952923357010522+0x20>
804000cc: 23 06 b4 fe  	sb	a1, -20(s0)
804000d0: 05 46        	addi	a2, zero, 1
804000d2: 41 a8        	j	0x80400162 <_ZN50_$LT$$RF$mut$u20$W$u20$as$u20$core..fmt..Write$GT$10write_char17h4db22e1fa943c349E.llvm.6036952923357010522+0xae>
804000d4: 1b d5 b5 00  	srliw	a0, a1, 11
804000d8: 19 ed        	bnez	a0, 0x804000f6 <_ZN50_$LT$$RF$mut$u20$W$u20$as$u20$core..fmt..Write$GT$10write_char17h4db22e1fa943c349E.llvm.6036952923357010522+0x42>
804000da: 13 d5 65 00  	srli	a0, a1, 6
804000de: 13 65 05 0c  	ori	a0, a0, 192
804000e2: 23 06 a4 fe  	sb	a0, -20(s0)
804000e6: 13 f5 f5 03  	andi	a0, a1, 63
804000ea: 13 65 05 08  	ori	a0, a0, 128
804000ee: a3 06 a4 fe  	sb	a0, -19(s0)
804000f2: 09 46        	addi	a2, zero, 2
804000f4: bd a0        	j	0x80400162 <_ZN50_$LT$$RF$mut$u20$W$u20$as$u20$core..fmt..Write$GT$10write_char17h4db22e1fa943c349E.llvm.6036952923357010522+0xae>
804000f6: 1b d5 05 01  	srliw	a0, a1, 16
804000fa: 1d e5        	bnez	a0, 0x80400128 <_ZN50_$LT$$RF$mut$u20$W$u20$as$u20$core..fmt..Write$GT$10write_char17h4db22e1fa943c349E.llvm.6036952923357010522+0x74>
804000fc: 1b d5 c5 00  	srliw	a0, a1, 12
80400100: 13 65 05 0e  	ori	a0, a0, 224
80400104: 23 06 a4 fe  	sb	a0, -20(s0)
80400108: 1b d5 65 00  	srliw	a0, a1, 6
8040010c: 13 75 f5 03  	andi	a0, a0, 63
80400110: 13 65 05 08  	ori	a0, a0, 128
80400114: a3 06 a4 fe  	sb	a0, -19(s0)
80400118: 13 f5 f5 03  	andi	a0, a1, 63
8040011c: 13 65 05 08  	ori	a0, a0, 128
80400120: 23 07 a4 fe  	sb	a0, -18(s0)
80400124: 0d 46        	addi	a2, zero, 3
80400126: 35 a8        	j	0x80400162 <_ZN50_$LT$$RF$mut$u20$W$u20$as$u20$core..fmt..Write$GT$10write_char17h4db22e1fa943c349E.llvm.6036952923357010522+0xae>
80400128: 1b d5 25 01  	srliw	a0, a1, 18
8040012c: 13 65 05 0f  	ori	a0, a0, 240
80400130: 23 06 a4 fe  	sb	a0, -20(s0)
80400134: 1b d5 c5 00  	srliw	a0, a1, 12
80400138: 13 75 f5 03  	andi	a0, a0, 63
8040013c: 13 65 05 08  	ori	a0, a0, 128
80400140: a3 06 a4 fe  	sb	a0, -19(s0)
80400144: 1b d5 65 00  	srliw	a0, a1, 6
80400148: 13 75 f5 03  	andi	a0, a0, 63
8040014c: 13 65 05 08  	ori	a0, a0, 128
80400150: 23 07 a4 fe  	sb	a0, -18(s0)
80400154: 13 f5 f5 03  	andi	a0, a1, 63
80400158: 13 65 05 08  	ori	a0, a0, 128
8040015c: a3 07 a4 fe  	sb	a0, -17(s0)
80400160: 11 46        	addi	a2, zero, 4
80400162: 05 45        	addi	a0, zero, 1
80400164: 93 05 c4 fe  	addi	a1, s0, -20
80400168: 93 08 00 04  	addi	a7, zero, 64
8040016c: 73 00 00 00  	ecall	
80400170: 01 45        	mv	a0, zero
80400172: 42 64        	ld	s0, 16(sp)
80400174: e2 60        	ld	ra, 24(sp)
80400176: 05 61        	addi	sp, sp, 32
80400178: 82 80        	ret

000000008040017a <_ZN50_$LT$$RF$mut$u20$W$u20$as$u20$core..fmt..Write$GT$9write_fmt17hf1157d0ab1c87613E.llvm.6036952923357010522>:
8040017a: 5d 71        	addi	sp, sp, -80
8040017c: 86 e4        	sd	ra, 72(sp)
8040017e: a2 e0        	sd	s0, 64(sp)
80400180: 80 08        	addi	s0, sp, 80
80400182: 08 61        	ld	a0, 0(a0)
80400184: 90 75        	ld	a2, 40(a1)
80400186: 94 71        	ld	a3, 32(a1)
80400188: 23 3c a4 fa  	sd	a0, -72(s0)
8040018c: 23 34 c4 fe  	sd	a2, -24(s0)
80400190: 23 30 d4 fe  	sd	a3, -32(s0)
80400194: 88 6d        	ld	a0, 24(a1)
80400196: 90 69        	ld	a2, 16(a1)
80400198: 94 65        	ld	a3, 8(a1)
8040019a: 8c 61        	ld	a1, 0(a1)
8040019c: 23 3c a4 fc  	sd	a0, -40(s0)
804001a0: 23 38 c4 fc  	sd	a2, -48(s0)
804001a4: 23 34 d4 fc  	sd	a3, -56(s0)
804001a8: 23 30 b4 fc  	sd	a1, -64(s0)

00000000804001ac <.LBB2_1>:
804001ac: 97 15 00 00  	auipc	a1, 1
804001b0: 93 85 c5 c5  	addi	a1, a1, -932
804001b4: 13 05 84 fb  	addi	a0, s0, -72
804001b8: 13 06 04 fc  	addi	a2, s0, -64
804001bc: 97 00 00 00  	auipc	ra, 0
804001c0: e7 80 40 1b  	jalr	436(ra)
804001c4: 06 64        	ld	s0, 64(sp)
804001c6: a6 60        	ld	ra, 72(sp)
804001c8: 61 61        	addi	sp, sp, 80
804001ca: 82 80        	ret

00000000804001cc <_ZN50_$LT$$RF$mut$u20$W$u20$as$u20$core..fmt..Write$GT$9write_str17h00483797eccdaf79E.llvm.6036952923357010522>:
804001cc: 41 11        	addi	sp, sp, -16
804001ce: 06 e4        	sd	ra, 8(sp)
804001d0: 22 e0        	sd	s0, 0(sp)
804001d2: 00 08        	addi	s0, sp, 16
804001d4: 05 45        	addi	a0, zero, 1
804001d6: 93 08 00 04  	addi	a7, zero, 64
804001da: 73 00 00 00  	ecall	
804001de: 01 45        	mv	a0, zero
804001e0: 02 64        	ld	s0, 0(sp)
804001e2: a2 60        	ld	ra, 8(sp)
804001e4: 41 01        	addi	sp, sp, 16
804001e6: 82 80        	ret

00000000804001e8 <_ZN8user_lib3std5print17hc657272c22670b05E>:
804001e8: 5d 71        	addi	sp, sp, -80
804001ea: 86 e4        	sd	ra, 72(sp)
804001ec: a2 e0        	sd	s0, 64(sp)
804001ee: 80 08        	addi	s0, sp, 80
804001f0: 0c 75        	ld	a1, 40(a0)
804001f2: 10 71        	ld	a2, 32(a0)
804001f4: 93 06 04 fc  	addi	a3, s0, -64
804001f8: 23 3c d4 fa  	sd	a3, -72(s0)
804001fc: 23 34 b4 fe  	sd	a1, -24(s0)
80400200: 23 30 c4 fe  	sd	a2, -32(s0)
80400204: 0c 6d        	ld	a1, 24(a0)
80400206: 10 69        	ld	a2, 16(a0)
80400208: 14 65        	ld	a3, 8(a0)
8040020a: 08 61        	ld	a0, 0(a0)
8040020c: 23 3c b4 fc  	sd	a1, -40(s0)
80400210: 23 38 c4 fc  	sd	a2, -48(s0)
80400214: 23 34 d4 fc  	sd	a3, -56(s0)
80400218: 23 30 a4 fc  	sd	a0, -64(s0)

000000008040021c <.LBB5_3>:
8040021c: 97 15 00 00  	auipc	a1, 1
80400220: 93 85 c5 be  	addi	a1, a1, -1044
80400224: 13 05 84 fb  	addi	a0, s0, -72
80400228: 13 06 04 fc  	addi	a2, s0, -64
8040022c: 97 00 00 00  	auipc	ra, 0
80400230: e7 80 40 14  	jalr	324(ra)
80400234: 09 e5        	bnez	a0, 0x8040023e <.LBB5_4>
80400236: 06 64        	ld	s0, 64(sp)
80400238: a6 60        	ld	ra, 72(sp)
8040023a: 61 61        	addi	sp, sp, 80
8040023c: 82 80        	ret

000000008040023e <.LBB5_4>:
8040023e: 17 15 00 00  	auipc	a0, 1
80400242: 13 05 a5 bf  	addi	a0, a0, -1030

0000000080400246 <.LBB5_5>:
80400246: 97 16 00 00  	auipc	a3, 1
8040024a: 93 86 26 c2  	addi	a3, a3, -990

000000008040024e <.LBB5_6>:
8040024e: 17 17 00 00  	auipc	a4, 1
80400252: 13 07 a7 c4  	addi	a4, a4, -950
80400256: 93 05 b0 02  	addi	a1, zero, 43
8040025a: 13 06 04 fc  	addi	a2, s0, -64
8040025e: 97 00 00 00  	auipc	ra, 0
80400262: e7 80 c0 02  	jalr	44(ra)
80400266: 00 00        	unimp	

0000000080400268 <_ZN4core3ops8function6FnOnce9call_once17h927a3b7e935b1a80E>:
80400268: 08 61        	ld	a0, 0(a0)
8040026a: 01 a0        	j	0x8040026a <_ZN4core3ops8function6FnOnce9call_once17h927a3b7e935b1a80E+0x2>

000000008040026c <_ZN4core3ptr102drop_in_place$LT$$RF$core..iter..adapters..copied..Copied$LT$core..slice..iter..Iter$LT$u8$GT$$GT$$GT$17h4a707c377be277c0E>:
8040026c: 82 80        	ret

000000008040026e <_ZN36_$LT$T$u20$as$u20$core..any..Any$GT$7type_id17haca1507c09e5390dE>:
8040026e: 37 35 2d 03  	lui	a0, 13011
80400272: 1b 05 95 28  	addiw	a0, a0, 649
80400276: 32 05        	slli	a0, a0, 12
80400278: 13 05 95 48  	addi	a0, a0, 1161
8040027c: 32 05        	slli	a0, a0, 12
8040027e: 13 05 f5 69  	addi	a0, a0, 1695
80400282: 32 05        	slli	a0, a0, 12
80400284: 13 05 85 85  	addi	a0, a0, -1960
80400288: 82 80        	ret

000000008040028a <_ZN4core6result13unwrap_failed17hafa49e573d69bc2aE>:
8040028a: 19 71        	addi	sp, sp, -128
8040028c: 86 fc        	sd	ra, 120(sp)
8040028e: 2a e4        	sd	a0, 8(sp)
80400290: 2e e8        	sd	a1, 16(sp)
80400292: 32 ec        	sd	a2, 24(sp)
80400294: 36 f0        	sd	a3, 32(sp)
80400296: 28 00        	addi	a0, sp, 8
80400298: aa ec        	sd	a0, 88(sp)

000000008040029a <.LBB122_1>:
8040029a: 17 15 00 00  	auipc	a0, 1
8040029e: 13 05 05 97  	addi	a0, a0, -1680
804002a2: aa f0        	sd	a0, 96(sp)
804002a4: 28 08        	addi	a0, sp, 24
804002a6: aa f4        	sd	a0, 104(sp)

00000000804002a8 <.LBB122_2>:
804002a8: 17 15 00 00  	auipc	a0, 1
804002ac: 13 05 a5 95  	addi	a0, a0, -1702
804002b0: aa f8        	sd	a0, 112(sp)

00000000804002b2 <.LBB122_3>:
804002b2: 17 15 00 00  	auipc	a0, 1
804002b6: 13 05 65 c0  	addi	a0, a0, -1018
804002ba: 2a f4        	sd	a0, 40(sp)
804002bc: 09 45        	addi	a0, zero, 2
804002be: 2a f8        	sd	a0, 48(sp)
804002c0: 02 fc        	sd	zero, 56(sp)
804002c2: ac 08        	addi	a1, sp, 88
804002c4: ae e4        	sd	a1, 72(sp)
804002c6: aa e8        	sd	a0, 80(sp)
804002c8: 28 10        	addi	a0, sp, 40
804002ca: ba 85        	mv	a1, a4
804002cc: 97 00 00 00  	auipc	ra, 0
804002d0: e7 80 a0 04  	jalr	74(ra)
804002d4: 00 00        	unimp	

00000000804002d6 <_ZN4core5panic9PanicInfo7message17h377ef745da2af649E>:
804002d6: 08 69        	ld	a0, 16(a0)
804002d8: 82 80        	ret

00000000804002da <_ZN4core5panic9PanicInfo8location17hefceeef4bb1b47adE>:
804002da: 08 6d        	ld	a0, 24(a0)
804002dc: 82 80        	ret

00000000804002de <_ZN4core5panic8Location4file17hbcd60ef083339757E>:
804002de: 10 61        	ld	a2, 0(a0)
804002e0: 0c 65        	ld	a1, 8(a0)
804002e2: 32 85        	mv	a0, a2
804002e4: 82 80        	ret

00000000804002e6 <_ZN4core5panic8Location4line17h4b2b8c9f9953181dE>:
804002e6: 08 49        	lw	a0, 16(a0)
804002e8: 82 80        	ret

00000000804002ea <_ZN4core9panicking5panic17he072ab2048e1ad0aE>:
804002ea: 5d 71        	addi	sp, sp, -80
804002ec: 86 e4        	sd	ra, 72(sp)
804002ee: 2a fc        	sd	a0, 56(sp)
804002f0: ae e0        	sd	a1, 64(sp)
804002f2: 28 18        	addi	a0, sp, 56
804002f4: 2a e4        	sd	a0, 8(sp)
804002f6: 05 45        	addi	a0, zero, 1
804002f8: 2a e8        	sd	a0, 16(sp)
804002fa: 02 ec        	sd	zero, 24(sp)

00000000804002fc <.LBB133_1>:
804002fc: 17 15 00 00  	auipc	a0, 1
80400300: 13 05 45 bb  	addi	a0, a0, -1100
80400304: 2a f4        	sd	a0, 40(sp)
80400306: 02 f8        	sd	zero, 48(sp)
80400308: 28 00        	addi	a0, sp, 8
8040030a: b2 85        	mv	a1, a2
8040030c: 97 00 00 00  	auipc	ra, 0
80400310: e7 80 a0 00  	jalr	10(ra)
80400314: 00 00        	unimp	

0000000080400316 <_ZN4core9panicking9panic_fmt17h2c321707ceb2193cE>:
80400316: 79 71        	addi	sp, sp, -48
80400318: 06 f4        	sd	ra, 40(sp)

000000008040031a <.LBB135_1>:
8040031a: 17 16 00 00  	auipc	a2, 1
8040031e: 13 06 66 b9  	addi	a2, a2, -1130
80400322: 32 e4        	sd	a2, 8(sp)

0000000080400324 <.LBB135_2>:
80400324: 17 16 00 00  	auipc	a2, 1
80400328: 13 06 46 bb  	addi	a2, a2, -1100
8040032c: 32 e8        	sd	a2, 16(sp)
8040032e: 2a ec        	sd	a0, 24(sp)
80400330: 2e f0        	sd	a1, 32(sp)
80400332: 28 00        	addi	a0, sp, 8
80400334: 97 10 00 00  	auipc	ra, 1
80400338: e7 80 60 8e  	jalr	-1818(ra)
8040033c: 00 00        	unimp	

000000008040033e <_ZN59_$LT$core..fmt..Arguments$u20$as$u20$core..fmt..Display$GT$3fmt17hcab09569cd6d1616E>:
8040033e: 39 71        	addi	sp, sp, -64
80400340: 06 fc        	sd	ra, 56(sp)
80400342: 10 75        	ld	a2, 40(a0)
80400344: 18 71        	ld	a4, 32(a0)
80400346: 94 71        	ld	a3, 32(a1)
80400348: 8c 75        	ld	a1, 40(a1)
8040034a: 32 f8        	sd	a2, 48(sp)
8040034c: 3a f4        	sd	a4, 40(sp)
8040034e: 10 6d        	ld	a2, 24(a0)
80400350: 18 69        	ld	a4, 16(a0)
80400352: 1c 65        	ld	a5, 8(a0)
80400354: 08 61        	ld	a0, 0(a0)
80400356: 32 f0        	sd	a2, 32(sp)
80400358: 3a ec        	sd	a4, 24(sp)
8040035a: 3e e8        	sd	a5, 16(sp)
8040035c: 2a e4        	sd	a0, 8(sp)
8040035e: 30 00        	addi	a2, sp, 8
80400360: 36 85        	mv	a0, a3
80400362: 97 00 00 00  	auipc	ra, 0
80400366: e7 80 e0 00  	jalr	14(ra)
8040036a: e2 70        	ld	ra, 56(sp)
8040036c: 21 61        	addi	sp, sp, 64
8040036e: 82 80        	ret

0000000080400370 <_ZN4core3fmt5write17he9b44ea122a44238E>:
80400370: 75 71        	addi	sp, sp, -144
80400372: 06 e5        	sd	ra, 136(sp)
80400374: 22 e1        	sd	s0, 128(sp)
80400376: a6 fc        	sd	s1, 120(sp)
80400378: ca f8        	sd	s2, 112(sp)
8040037a: ce f4        	sd	s3, 104(sp)
8040037c: d2 f0        	sd	s4, 96(sp)
8040037e: d6 ec        	sd	s5, 88(sp)
80400380: da e8        	sd	s6, 80(sp)
80400382: de e4        	sd	s7, 72(sp)
80400384: e2 e0        	sd	s8, 64(sp)
80400386: 32 84        	mv	s0, a2
80400388: 05 46        	addi	a2, zero, 1
8040038a: 16 16        	slli	a2, a2, 37
8040038c: 32 f8        	sd	a2, 48(sp)
8040038e: 0d 46        	addi	a2, zero, 3
80400390: 23 0c c1 02  	sb	a2, 56(sp)
80400394: 04 68        	ld	s1, 16(s0)
80400396: 02 e0        	sd	zero, 0(sp)
80400398: 02 e8        	sd	zero, 16(sp)
8040039a: 2a f0        	sd	a0, 32(sp)
8040039c: 2e f4        	sd	a1, 40(sp)
8040039e: f1 c0        	beqz	s1, 0x80400462 <.LBB174_35+0x90>
804003a0: 10 6c        	ld	a2, 24(s0)
804003a2: 03 39 84 00  	ld	s2, 8(s0)
804003a6: 4a 8a        	mv	s4, s2
804003a8: 63 63 c9 00  	bltu	s2, a2, 0x804003ae <_ZN4core3fmt5write17he9b44ea122a44238E+0x3e>
804003ac: 32 8a        	mv	s4, a2
804003ae: 83 39 04 00  	ld	s3, 0(s0)
804003b2: 63 03 0a 10  	beqz	s4, 0x804004b8 <.LBB174_35+0xe6>
804003b6: 83 b6 09 00  	ld	a3, 0(s3)
804003ba: 03 b6 89 00  	ld	a2, 8(s3)
804003be: 98 6d        	ld	a4, 24(a1)
804003c0: b6 85        	mv	a1, a3
804003c2: 02 97        	jalr	a4
804003c4: 63 18 05 10  	bnez	a0, 0x804004d4 <.LBB174_35+0x102>
804003c8: 83 3b 04 02  	ld	s7, 32(s0)
804003cc: 13 8c 89 01  	addi	s8, s3, 24
804003d0: 89 4a        	addi	s5, zero, 2

00000000804003d2 <.LBB174_35>:
804003d2: 17 0b 00 00  	auipc	s6, 0
804003d6: 13 0b 6b e9  	addi	s6, s6, -362
804003da: 52 84        	mv	s0, s4
804003dc: 88 54        	lw	a0, 40(s1)
804003de: 2a da        	sw	a0, 52(sp)
804003e0: 03 85 04 03  	lb	a0, 48(s1)
804003e4: 23 0c a1 02  	sb	a0, 56(sp)
804003e8: c8 54        	lw	a0, 44(s1)
804003ea: 2a d8        	sw	a0, 48(sp)
804003ec: 90 6c        	ld	a2, 24(s1)
804003ee: 88 70        	ld	a0, 32(s1)
804003f0: 09 ce        	beqz	a2, 0x8040040a <.LBB174_35+0x38>
804003f2: 81 45        	mv	a1, zero
804003f4: 63 0c 56 01  	beq	a2, s5, 0x8040040c <.LBB174_35+0x3a>
804003f8: 12 05        	slli	a0, a0, 4
804003fa: 5e 95        	add	a0, a0, s7
804003fc: 0c 65        	ld	a1, 8(a0)
804003fe: 63 84 65 01  	beq	a1, s6, 0x80400406 <.LBB174_35+0x34>
80400402: 81 45        	mv	a1, zero
80400404: 21 a0        	j	0x8040040c <.LBB174_35+0x3a>
80400406: 08 61        	ld	a0, 0(a0)
80400408: 08 61        	ld	a0, 0(a0)
8040040a: 85 45        	addi	a1, zero, 1
8040040c: 2e e0        	sd	a1, 0(sp)
8040040e: 2a e4        	sd	a0, 8(sp)
80400410: 90 64        	ld	a2, 8(s1)
80400412: 88 68        	ld	a0, 16(s1)
80400414: 09 ce        	beqz	a2, 0x8040042e <.LBB174_35+0x5c>
80400416: 81 45        	mv	a1, zero
80400418: 63 0c 56 01  	beq	a2, s5, 0x80400430 <.LBB174_35+0x5e>
8040041c: 12 05        	slli	a0, a0, 4
8040041e: 5e 95        	add	a0, a0, s7
80400420: 0c 65        	ld	a1, 8(a0)
80400422: 63 84 65 01  	beq	a1, s6, 0x8040042a <.LBB174_35+0x58>
80400426: 81 45        	mv	a1, zero
80400428: 21 a0        	j	0x80400430 <.LBB174_35+0x5e>
8040042a: 08 61        	ld	a0, 0(a0)
8040042c: 08 61        	ld	a0, 0(a0)
8040042e: 85 45        	addi	a1, zero, 1
80400430: 2e e8        	sd	a1, 16(sp)
80400432: 2a ec        	sd	a0, 24(sp)
80400434: 88 60        	ld	a0, 0(s1)
80400436: 12 05        	slli	a0, a0, 4
80400438: 5e 95        	add	a0, a0, s7
8040043a: 10 65        	ld	a2, 8(a0)
8040043c: 08 61        	ld	a0, 0(a0)
8040043e: 8a 85        	mv	a1, sp
80400440: 02 96        	jalr	a2
80400442: 49 e9        	bnez	a0, 0x804004d4 <.LBB174_35+0x102>
80400444: 7d 14        	addi	s0, s0, -1
80400446: 35 c8        	beqz	s0, 0x804004ba <.LBB174_35+0xe8>
80400448: a2 76        	ld	a3, 40(sp)
8040044a: 02 75        	ld	a0, 32(sp)
8040044c: 83 35 8c ff  	ld	a1, -8(s8)
80400450: 03 36 0c 00  	ld	a2, 0(s8)
80400454: 94 6e        	ld	a3, 24(a3)
80400456: 93 84 84 03  	addi	s1, s1, 56
8040045a: 41 0c        	addi	s8, s8, 16
8040045c: 82 96        	jalr	a3
8040045e: 3d dd        	beqz	a0, 0x804003dc <.LBB174_35+0xa>
80400460: 95 a8        	j	0x804004d4 <.LBB174_35+0x102>
80400462: 10 74        	ld	a2, 40(s0)
80400464: 03 39 84 00  	ld	s2, 8(s0)
80400468: 4a 8a        	mv	s4, s2
8040046a: 63 63 c9 00  	bltu	s2, a2, 0x80400470 <.LBB174_35+0x9e>
8040046e: 32 8a        	mv	s4, a2
80400470: 83 39 04 00  	ld	s3, 0(s0)
80400474: 63 02 0a 04  	beqz	s4, 0x804004b8 <.LBB174_35+0xe6>
80400478: 83 3a 04 02  	ld	s5, 32(s0)
8040047c: 83 b6 09 00  	ld	a3, 0(s3)
80400480: 03 b6 89 00  	ld	a2, 8(s3)
80400484: 98 6d        	ld	a4, 24(a1)
80400486: b6 85        	mv	a1, a3
80400488: 02 97        	jalr	a4
8040048a: 29 e5        	bnez	a0, 0x804004d4 <.LBB174_35+0x102>
8040048c: 01 44        	mv	s0, zero
8040048e: d2 84        	mv	s1, s4
80400490: 33 85 8a 00  	add	a0, s5, s0
80400494: 10 65        	ld	a2, 8(a0)
80400496: 08 61        	ld	a0, 0(a0)
80400498: 8a 85        	mv	a1, sp
8040049a: 02 96        	jalr	a2
8040049c: 05 ed        	bnez	a0, 0x804004d4 <.LBB174_35+0x102>
8040049e: fd 14        	addi	s1, s1, -1
804004a0: 89 cc        	beqz	s1, 0x804004ba <.LBB174_35+0xe8>
804004a2: 02 75        	ld	a0, 32(sp)
804004a4: a2 76        	ld	a3, 40(sp)
804004a6: 33 86 89 00  	add	a2, s3, s0
804004aa: 0c 6a        	ld	a1, 16(a2)
804004ac: 10 6e        	ld	a2, 24(a2)
804004ae: 94 6e        	ld	a3, 24(a3)
804004b0: 41 04        	addi	s0, s0, 16
804004b2: 82 96        	jalr	a3
804004b4: 71 dd        	beqz	a0, 0x80400490 <.LBB174_35+0xbe>
804004b6: 39 a8        	j	0x804004d4 <.LBB174_35+0x102>
804004b8: 01 4a        	mv	s4, zero
804004ba: 63 7f 2a 01  	bgeu	s4, s2, 0x804004d8 <.LBB174_35+0x106>
804004be: 02 75        	ld	a0, 32(sp)
804004c0: a2 76        	ld	a3, 40(sp)
804004c2: 93 15 4a 00  	slli	a1, s4, 4
804004c6: 33 86 b9 00  	add	a2, s3, a1
804004ca: 0c 62        	ld	a1, 0(a2)
804004cc: 10 66        	ld	a2, 8(a2)
804004ce: 94 6e        	ld	a3, 24(a3)
804004d0: 82 96        	jalr	a3
804004d2: 19 c1        	beqz	a0, 0x804004d8 <.LBB174_35+0x106>
804004d4: 05 45        	addi	a0, zero, 1
804004d6: 11 a0        	j	0x804004da <.LBB174_35+0x108>
804004d8: 01 45        	mv	a0, zero
804004da: 06 6c        	ld	s8, 64(sp)
804004dc: a6 6b        	ld	s7, 72(sp)
804004de: 46 6b        	ld	s6, 80(sp)
804004e0: e6 6a        	ld	s5, 88(sp)
804004e2: 06 7a        	ld	s4, 96(sp)
804004e4: a6 79        	ld	s3, 104(sp)
804004e6: 46 79        	ld	s2, 112(sp)
804004e8: e6 74        	ld	s1, 120(sp)
804004ea: 0a 64        	ld	s0, 128(sp)
804004ec: aa 60        	ld	ra, 136(sp)
804004ee: 49 61        	addi	sp, sp, 144
804004f0: 82 80        	ret

00000000804004f2 <_ZN4core3fmt9Formatter12pad_integral17h888162d959028dddE>:
804004f2: 1d 71        	addi	sp, sp, -96
804004f4: 86 ec        	sd	ra, 88(sp)
804004f6: a2 e8        	sd	s0, 80(sp)
804004f8: a6 e4        	sd	s1, 72(sp)
804004fa: ca e0        	sd	s2, 64(sp)
804004fc: 4e fc        	sd	s3, 56(sp)
804004fe: 52 f8        	sd	s4, 48(sp)
80400500: 56 f4        	sd	s5, 40(sp)
80400502: 5a f0        	sd	s6, 32(sp)
80400504: 5e ec        	sd	s7, 24(sp)
80400506: 62 e8        	sd	s8, 16(sp)
80400508: 66 e4        	sd	s9, 8(sp)
8040050a: 6a e0        	sd	s10, 0(sp)
8040050c: be 89        	mv	s3, a5
8040050e: 3a 89        	mv	s2, a4
80400510: b6 8a        	mv	s5, a3
80400512: 2a 84        	mv	s0, a0
80400514: a9 c5        	beqz	a1, 0x8040055e <_ZN4core3fmt9Formatter12pad_integral17h888162d959028dddE+0x6c>
80400516: 03 65 04 03  	lwu	a0, 48(s0)
8040051a: 93 75 15 00  	andi	a1, a0, 1
8040051e: 37 0a 11 00  	lui	s4, 272
80400522: 99 c1        	beqz	a1, 0x80400528 <_ZN4core3fmt9Formatter12pad_integral17h888162d959028dddE+0x36>
80400524: 13 0a b0 02  	addi	s4, zero, 43
80400528: b3 84 35 01  	add	s1, a1, s3
8040052c: 93 75 45 00  	andi	a1, a0, 4
80400530: a1 c1        	beqz	a1, 0x80400570 <_ZN4core3fmt9Formatter12pad_integral17h888162d959028dddE+0x7e>
80400532: 81 45        	mv	a1, zero
80400534: 63 80 0a 02  	beqz	s5, 0x80400554 <_ZN4core3fmt9Formatter12pad_integral17h888162d959028dddE+0x62>
80400538: d6 86        	mv	a3, s5
8040053a: 32 87        	mv	a4, a2
8040053c: 83 47 07 00  	lbu	a5, 0(a4)
80400540: 05 07        	addi	a4, a4, 1
80400542: 93 f7 07 0c  	andi	a5, a5, 192
80400546: 93 87 07 f8  	addi	a5, a5, -128
8040054a: b3 37 f0 00  	snez	a5, a5
8040054e: fd 16        	addi	a3, a3, -1
80400550: be 95        	add	a1, a1, a5
80400552: ed f6        	bnez	a3, 0x8040053c <_ZN4core3fmt9Formatter12pad_integral17h888162d959028dddE+0x4a>
80400554: ae 94        	add	s1, s1, a1
80400556: b2 8c        	mv	s9, a2
80400558: 0c 60        	ld	a1, 0(s0)
8040055a: 91 ed        	bnez	a1, 0x80400576 <_ZN4core3fmt9Formatter12pad_integral17h888162d959028dddE+0x84>
8040055c: a1 a0        	j	0x804005a4 <_ZN4core3fmt9Formatter12pad_integral17h888162d959028dddE+0xb2>
8040055e: 03 65 04 03  	lwu	a0, 48(s0)
80400562: 93 84 19 00  	addi	s1, s3, 1
80400566: 13 0a d0 02  	addi	s4, zero, 45
8040056a: 93 75 45 00  	andi	a1, a0, 4
8040056e: f1 f1        	bnez	a1, 0x80400532 <_ZN4core3fmt9Formatter12pad_integral17h888162d959028dddE+0x40>
80400570: 81 4c        	mv	s9, zero
80400572: 0c 60        	ld	a1, 0(s0)
80400574: 85 c9        	beqz	a1, 0x804005a4 <_ZN4core3fmt9Formatter12pad_integral17h888162d959028dddE+0xb2>
80400576: 03 3d 84 00  	ld	s10, 8(s0)
8040057a: 63 f5 a4 03  	bgeu	s1, s10, 0x804005a4 <_ZN4core3fmt9Formatter12pad_integral17h888162d959028dddE+0xb2>
8040057e: 21 89        	andi	a0, a0, 8
80400580: 35 ed        	bnez	a0, 0x804005fc <_ZN4core3fmt9Formatter12pad_integral17h888162d959028dddE+0x10a>
80400582: 83 45 84 03  	lbu	a1, 56(s0)
80400586: 0d 46        	addi	a2, zero, 3
80400588: 05 45        	addi	a0, zero, 1
8040058a: 63 83 c5 00  	beq	a1, a2, 0x80400590 <_ZN4core3fmt9Formatter12pad_integral17h888162d959028dddE+0x9e>
8040058e: 2e 85        	mv	a0, a1
80400590: 93 75 35 00  	andi	a1, a0, 3
80400594: 33 05 9d 40  	sub	a0, s10, s1
80400598: d5 c5        	beqz	a1, 0x80400644 <_ZN4core3fmt9Formatter12pad_integral17h888162d959028dddE+0x152>
8040059a: 05 46        	addi	a2, zero, 1
8040059c: 63 97 c5 0a  	bne	a1, a2, 0x8040064a <_ZN4core3fmt9Formatter12pad_integral17h888162d959028dddE+0x158>
804005a0: 01 4c        	mv	s8, zero
804005a2: 4d a8        	j	0x80400654 <_ZN4core3fmt9Formatter12pad_integral17h888162d959028dddE+0x162>
804005a4: 22 85        	mv	a0, s0
804005a6: d2 85        	mv	a1, s4
804005a8: 66 86        	mv	a2, s9
804005aa: d6 86        	mv	a3, s5
804005ac: 97 00 00 00  	auipc	ra, 0
804005b0: e7 80 80 17  	jalr	376(ra)
804005b4: 05 4b        	addi	s6, zero, 1
804005b6: 05 c1        	beqz	a0, 0x804005d6 <_ZN4core3fmt9Formatter12pad_integral17h888162d959028dddE+0xe4>
804005b8: 5a 85        	mv	a0, s6
804005ba: 02 6d        	ld	s10, 0(sp)
804005bc: a2 6c        	ld	s9, 8(sp)
804005be: 42 6c        	ld	s8, 16(sp)
804005c0: e2 6b        	ld	s7, 24(sp)
804005c2: 02 7b        	ld	s6, 32(sp)
804005c4: a2 7a        	ld	s5, 40(sp)
804005c6: 42 7a        	ld	s4, 48(sp)
804005c8: e2 79        	ld	s3, 56(sp)
804005ca: 06 69        	ld	s2, 64(sp)
804005cc: a6 64        	ld	s1, 72(sp)
804005ce: 46 64        	ld	s0, 80(sp)
804005d0: e6 60        	ld	ra, 88(sp)
804005d2: 25 61        	addi	sp, sp, 96
804005d4: 82 80        	ret
804005d6: 0c 74        	ld	a1, 40(s0)
804005d8: 08 70        	ld	a0, 32(s0)
804005da: 9c 6d        	ld	a5, 24(a1)
804005dc: ca 85        	mv	a1, s2
804005de: 4e 86        	mv	a2, s3
804005e0: 02 6d        	ld	s10, 0(sp)
804005e2: a2 6c        	ld	s9, 8(sp)
804005e4: 42 6c        	ld	s8, 16(sp)
804005e6: e2 6b        	ld	s7, 24(sp)
804005e8: 02 7b        	ld	s6, 32(sp)
804005ea: a2 7a        	ld	s5, 40(sp)
804005ec: 42 7a        	ld	s4, 48(sp)
804005ee: e2 79        	ld	s3, 56(sp)
804005f0: 06 69        	ld	s2, 64(sp)
804005f2: a6 64        	ld	s1, 72(sp)
804005f4: 46 64        	ld	s0, 80(sp)
804005f6: e6 60        	ld	ra, 88(sp)
804005f8: 25 61        	addi	sp, sp, 96
804005fa: 82 87        	jr	a5
804005fc: 83 6b 44 03  	lwu	s7, 52(s0)
80400600: 13 05 00 03  	addi	a0, zero, 48
80400604: 03 4c 84 03  	lbu	s8, 56(s0)
80400608: 48 d8        	sw	a0, 52(s0)
8040060a: 05 4b        	addi	s6, zero, 1
8040060c: 23 0c 64 03  	sb	s6, 56(s0)
80400610: 22 85        	mv	a0, s0
80400612: d2 85        	mv	a1, s4
80400614: 66 86        	mv	a2, s9
80400616: d6 86        	mv	a3, s5
80400618: 97 00 00 00  	auipc	ra, 0
8040061c: e7 80 c0 10  	jalr	268(ra)
80400620: 41 fd        	bnez	a0, 0x804005b8 <_ZN4core3fmt9Formatter12pad_integral17h888162d959028dddE+0xc6>
80400622: 83 45 84 03  	lbu	a1, 56(s0)
80400626: 0d 46        	addi	a2, zero, 3
80400628: 05 45        	addi	a0, zero, 1
8040062a: 63 83 c5 00  	beq	a1, a2, 0x80400630 <_ZN4core3fmt9Formatter12pad_integral17h888162d959028dddE+0x13e>
8040062e: 2e 85        	mv	a0, a1
80400630: 93 75 35 00  	andi	a1, a0, 3
80400634: 33 05 9d 40  	sub	a0, s10, s1
80400638: bd c9        	beqz	a1, 0x804006ae <_ZN4core3fmt9Formatter12pad_integral17h888162d959028dddE+0x1bc>
8040063a: 05 46        	addi	a2, zero, 1
8040063c: 63 9c c5 06  	bne	a1, a2, 0x804006b4 <_ZN4core3fmt9Formatter12pad_integral17h888162d959028dddE+0x1c2>
80400640: 81 4a        	mv	s5, zero
80400642: b5 a8        	j	0x804006be <_ZN4core3fmt9Formatter12pad_integral17h888162d959028dddE+0x1cc>
80400644: 2a 8c        	mv	s8, a0
80400646: 01 45        	mv	a0, zero
80400648: 31 a0        	j	0x80400654 <_ZN4core3fmt9Formatter12pad_integral17h888162d959028dddE+0x162>
8040064a: 93 05 15 00  	addi	a1, a0, 1
8040064e: 05 81        	srli	a0, a0, 1
80400650: 13 dc 15 00  	srli	s8, a1, 1
80400654: 93 04 15 00  	addi	s1, a0, 1
80400658: fd 14        	addi	s1, s1, -1
8040065a: 81 c8        	beqz	s1, 0x8040066a <_ZN4core3fmt9Formatter12pad_integral17h888162d959028dddE+0x178>
8040065c: 0c 74        	ld	a1, 40(s0)
8040065e: 08 70        	ld	a0, 32(s0)
80400660: 90 71        	ld	a2, 32(a1)
80400662: 4c 58        	lw	a1, 52(s0)
80400664: 02 96        	jalr	a2
80400666: 6d d9        	beqz	a0, 0x80400658 <_ZN4core3fmt9Formatter12pad_integral17h888162d959028dddE+0x166>
80400668: ad a0        	j	0x804006d2 <_ZN4core3fmt9Formatter12pad_integral17h888162d959028dddE+0x1e0>
8040066a: 83 6b 44 03  	lwu	s7, 52(s0)
8040066e: 22 85        	mv	a0, s0
80400670: d2 85        	mv	a1, s4
80400672: 66 86        	mv	a2, s9
80400674: d6 86        	mv	a3, s5
80400676: 97 00 00 00  	auipc	ra, 0
8040067a: e7 80 e0 0a  	jalr	174(ra)
8040067e: 05 4b        	addi	s6, zero, 1
80400680: 05 fd        	bnez	a0, 0x804005b8 <_ZN4core3fmt9Formatter12pad_integral17h888162d959028dddE+0xc6>
80400682: 0c 74        	ld	a1, 40(s0)
80400684: 08 70        	ld	a0, 32(s0)
80400686: 94 6d        	ld	a3, 24(a1)
80400688: ca 85        	mv	a1, s2
8040068a: 4e 86        	mv	a2, s3
8040068c: 82 96        	jalr	a3
8040068e: 0d f5        	bnez	a0, 0x804005b8 <_ZN4core3fmt9Formatter12pad_integral17h888162d959028dddE+0xc6>
80400690: 03 39 04 02  	ld	s2, 32(s0)
80400694: 00 74        	ld	s0, 40(s0)
80400696: 81 44        	mv	s1, zero
80400698: 63 02 9c 08  	beq	s8, s1, 0x8040071c <_ZN4core3fmt9Formatter12pad_integral17h888162d959028dddE+0x22a>
8040069c: 10 70        	ld	a2, 32(s0)
8040069e: 85 04        	addi	s1, s1, 1
804006a0: 4a 85        	mv	a0, s2
804006a2: de 85        	mv	a1, s7
804006a4: 02 96        	jalr	a2
804006a6: 6d d9        	beqz	a0, 0x80400698 <_ZN4core3fmt9Formatter12pad_integral17h888162d959028dddE+0x1a6>
804006a8: 13 85 f4 ff  	addi	a0, s1, -1
804006ac: 8d a8        	j	0x8040071e <_ZN4core3fmt9Formatter12pad_integral17h888162d959028dddE+0x22c>
804006ae: aa 8a        	mv	s5, a0
804006b0: 01 45        	mv	a0, zero
804006b2: 31 a0        	j	0x804006be <_ZN4core3fmt9Formatter12pad_integral17h888162d959028dddE+0x1cc>
804006b4: 93 05 15 00  	addi	a1, a0, 1
804006b8: 05 81        	srli	a0, a0, 1
804006ba: 93 da 15 00  	srli	s5, a1, 1
804006be: 93 04 15 00  	addi	s1, a0, 1
804006c2: fd 14        	addi	s1, s1, -1
804006c4: 89 c8        	beqz	s1, 0x804006d6 <_ZN4core3fmt9Formatter12pad_integral17h888162d959028dddE+0x1e4>
804006c6: 0c 74        	ld	a1, 40(s0)
804006c8: 08 70        	ld	a0, 32(s0)
804006ca: 90 71        	ld	a2, 32(a1)
804006cc: 4c 58        	lw	a1, 52(s0)
804006ce: 02 96        	jalr	a2
804006d0: 6d d9        	beqz	a0, 0x804006c2 <_ZN4core3fmt9Formatter12pad_integral17h888162d959028dddE+0x1d0>
804006d2: 05 4b        	addi	s6, zero, 1
804006d4: d5 b5        	j	0x804005b8 <_ZN4core3fmt9Formatter12pad_integral17h888162d959028dddE+0xc6>
804006d6: 0c 74        	ld	a1, 40(s0)
804006d8: 03 6a 44 03  	lwu	s4, 52(s0)
804006dc: 08 70        	ld	a0, 32(s0)
804006de: 94 6d        	ld	a3, 24(a1)
804006e0: ca 85        	mv	a1, s2
804006e2: 4e 86        	mv	a2, s3
804006e4: 82 96        	jalr	a3
804006e6: 05 4b        	addi	s6, zero, 1
804006e8: e3 18 05 ec  	bnez	a0, 0x804005b8 <_ZN4core3fmt9Formatter12pad_integral17h888162d959028dddE+0xc6>
804006ec: 03 39 04 02  	ld	s2, 32(s0)
804006f0: 83 39 84 02  	ld	s3, 40(s0)
804006f4: 81 44        	mv	s1, zero
804006f6: 63 8d 9a 00  	beq	s5, s1, 0x80400710 <_ZN4core3fmt9Formatter12pad_integral17h888162d959028dddE+0x21e>
804006fa: 03 b6 09 02  	ld	a2, 32(s3)
804006fe: 85 04        	addi	s1, s1, 1
80400700: 4a 85        	mv	a0, s2
80400702: d2 85        	mv	a1, s4
80400704: 02 96        	jalr	a2
80400706: 65 d9        	beqz	a0, 0x804006f6 <_ZN4core3fmt9Formatter12pad_integral17h888162d959028dddE+0x204>
80400708: 13 85 f4 ff  	addi	a0, s1, -1
8040070c: e3 66 55 eb  	bltu	a0, s5, 0x804005b8 <_ZN4core3fmt9Formatter12pad_integral17h888162d959028dddE+0xc6>
80400710: 01 4b        	mv	s6, zero
80400712: 23 2a 74 03  	sw	s7, 52(s0)
80400716: 23 0c 84 03  	sb	s8, 56(s0)
8040071a: 79 bd        	j	0x804005b8 <_ZN4core3fmt9Formatter12pad_integral17h888162d959028dddE+0xc6>
8040071c: 62 85        	mv	a0, s8
8040071e: 33 3b 85 01  	sltu	s6, a0, s8
80400722: 59 bd        	j	0x804005b8 <_ZN4core3fmt9Formatter12pad_integral17h888162d959028dddE+0xc6>

0000000080400724 <_ZN4core3fmt9Formatter12pad_integral12write_prefix17h448ff977dd261a85E>:
80400724: 01 11        	addi	sp, sp, -32
80400726: 06 ec        	sd	ra, 24(sp)
80400728: 22 e8        	sd	s0, 16(sp)
8040072a: 26 e4        	sd	s1, 8(sp)
8040072c: 4a e0        	sd	s2, 0(sp)
8040072e: 1b 87 05 00  	sext.w	a4, a1
80400732: b7 07 11 00  	lui	a5, 272
80400736: 36 89        	mv	s2, a3
80400738: b2 84        	mv	s1, a2
8040073a: 2a 84        	mv	s0, a0
8040073c: 63 09 f7 00  	beq	a4, a5, 0x8040074e <_ZN4core3fmt9Formatter12pad_integral12write_prefix17h448ff977dd261a85E+0x2a>
80400740: 10 74        	ld	a2, 40(s0)
80400742: 08 70        	ld	a0, 32(s0)
80400744: 10 72        	ld	a2, 32(a2)
80400746: 02 96        	jalr	a2
80400748: aa 85        	mv	a1, a0
8040074a: 05 45        	addi	a0, zero, 1
8040074c: 91 ed        	bnez	a1, 0x80400768 <_ZN4core3fmt9Formatter12pad_integral12write_prefix17h448ff977dd261a85E+0x44>
8040074e: 81 cc        	beqz	s1, 0x80400766 <_ZN4core3fmt9Formatter12pad_integral12write_prefix17h448ff977dd261a85E+0x42>
80400750: 0c 74        	ld	a1, 40(s0)
80400752: 08 70        	ld	a0, 32(s0)
80400754: 9c 6d        	ld	a5, 24(a1)
80400756: a6 85        	mv	a1, s1
80400758: 4a 86        	mv	a2, s2
8040075a: 02 69        	ld	s2, 0(sp)
8040075c: a2 64        	ld	s1, 8(sp)
8040075e: 42 64        	ld	s0, 16(sp)
80400760: e2 60        	ld	ra, 24(sp)
80400762: 05 61        	addi	sp, sp, 32
80400764: 82 87        	jr	a5
80400766: 01 45        	mv	a0, zero
80400768: 02 69        	ld	s2, 0(sp)
8040076a: a2 64        	ld	s1, 8(sp)
8040076c: 42 64        	ld	s0, 16(sp)
8040076e: e2 60        	ld	ra, 24(sp)
80400770: 05 61        	addi	sp, sp, 32
80400772: 82 80        	ret

0000000080400774 <_ZN4core3fmt9Formatter3pad17h6caadcb24b9dd819E>:
80400774: 39 71        	addi	sp, sp, -64
80400776: 06 fc        	sd	ra, 56(sp)
80400778: 22 f8        	sd	s0, 48(sp)
8040077a: 26 f4        	sd	s1, 40(sp)
8040077c: 4a f0        	sd	s2, 32(sp)
8040077e: 4e ec        	sd	s3, 24(sp)
80400780: 52 e8        	sd	s4, 16(sp)
80400782: 56 e4        	sd	s5, 8(sp)
80400784: 2a 84        	mv	s0, a0
80400786: 14 69        	ld	a3, 16(a0)
80400788: 08 61        	ld	a0, 0(a0)
8040078a: b2 89        	mv	s3, a2
8040078c: 2e 89        	mv	s2, a1
8040078e: 93 85 f6 ff  	addi	a1, a3, -1
80400792: 05 46        	addi	a2, zero, 1
80400794: 93 b5 15 00  	seqz	a1, a1
80400798: 63 14 c5 00  	bne	a0, a2, 0x804007a0 <_ZN4core3fmt9Formatter3pad17h6caadcb24b9dd819E+0x2c>
8040079c: 81 e5        	bnez	a1, 0x804007a4 <_ZN4core3fmt9Formatter3pad17h6caadcb24b9dd819E+0x30>
8040079e: 2d a2        	j	0x804008c8 <_ZN4core3fmt9Formatter3pad17h6caadcb24b9dd819E+0x154>
804007a0: 63 8b 05 18  	beqz	a1, 0x80400936 <_ZN4core3fmt9Formatter3pad17h6caadcb24b9dd819E+0x1c2>
804007a4: 14 6c        	ld	a3, 24(s0)
804007a6: 7d 15        	addi	a0, a0, -1
804007a8: 93 32 15 00  	seqz	t0, a0
804007ac: b3 07 39 01  	add	a5, s2, s3
804007b0: 81 45        	mv	a1, zero
804007b2: c5 ca        	beqz	a3, 0x80400862 <_ZN4core3fmt9Formatter3pad17h6caadcb24b9dd819E+0xee>
804007b4: 7d 5e        	addi	t3, zero, -1
804007b6: 93 03 00 0e  	addi	t2, zero, 224
804007ba: 13 03 00 0f  	addi	t1, zero, 240
804007be: 37 08 1c 00  	lui	a6, 448
804007c2: b7 08 11 00  	lui	a7, 272
804007c6: ca 84        	mv	s1, s2
804007c8: 63 8e f4 0e  	beq	s1, a5, 0x804008c4 <_ZN4core3fmt9Formatter3pad17h6caadcb24b9dd819E+0x150>
804007cc: 03 86 04 00  	lb	a2, 0(s1)
804007d0: 13 85 14 00  	addi	a0, s1, 1
804007d4: 63 5a ce 00  	bge	t3, a2, 0x804007e8 <_ZN4core3fmt9Formatter3pad17h6caadcb24b9dd819E+0x74>
804007d8: 2a 86        	mv	a2, a0
804007da: 33 07 96 40  	sub	a4, a2, s1
804007de: fd 16        	addi	a3, a3, -1
804007e0: ba 95        	add	a1, a1, a4
804007e2: b2 84        	mv	s1, a2
804007e4: f5 f2        	bnez	a3, 0x804007c8 <_ZN4core3fmt9Formatter3pad17h6caadcb24b9dd819E+0x54>
804007e6: bd a8        	j	0x80400864 <_ZN4core3fmt9Formatter3pad17h6caadcb24b9dd819E+0xf0>
804007e8: 63 0d f5 00  	beq	a0, a5, 0x80400802 <_ZN4core3fmt9Formatter3pad17h6caadcb24b9dd819E+0x8e>
804007ec: 03 c7 14 00  	lbu	a4, 1(s1)
804007f0: 13 85 24 00  	addi	a0, s1, 2
804007f4: 93 7e f7 03  	andi	t4, a4, 63
804007f8: 13 77 f6 0f  	andi	a4, a2, 255
804007fc: e3 6e 77 fc  	bltu	a4, t2, 0x804007d8 <_ZN4core3fmt9Formatter3pad17h6caadcb24b9dd819E+0x64>
80400800: 39 a0        	j	0x8040080e <_ZN4core3fmt9Formatter3pad17h6caadcb24b9dd819E+0x9a>
80400802: 81 4e        	mv	t4, zero
80400804: 3e 85        	mv	a0, a5
80400806: 13 77 f6 0f  	andi	a4, a2, 255
8040080a: e3 67 77 fc  	bltu	a4, t2, 0x804007d8 <_ZN4core3fmt9Formatter3pad17h6caadcb24b9dd819E+0x64>
8040080e: 63 0a f5 00  	beq	a0, a5, 0x80400822 <_ZN4core3fmt9Formatter3pad17h6caadcb24b9dd819E+0xae>
80400812: 03 46 05 00  	lbu	a2, 0(a0)
80400816: 05 05        	addi	a0, a0, 1
80400818: 13 7f f6 03  	andi	t5, a2, 63
8040081c: e3 6e 67 fa  	bltu	a4, t1, 0x804007d8 <_ZN4core3fmt9Formatter3pad17h6caadcb24b9dd819E+0x64>
80400820: 29 a0        	j	0x8040082a <_ZN4core3fmt9Formatter3pad17h6caadcb24b9dd819E+0xb6>
80400822: 01 4f        	mv	t5, zero
80400824: 3e 85        	mv	a0, a5
80400826: e3 69 67 fa  	bltu	a4, t1, 0x804007d8 <_ZN4core3fmt9Formatter3pad17h6caadcb24b9dd819E+0x64>
8040082a: 63 0a f5 00  	beq	a0, a5, 0x8040083e <_ZN4core3fmt9Formatter3pad17h6caadcb24b9dd819E+0xca>
8040082e: 83 4f 05 00  	lbu	t6, 0(a0)
80400832: 13 06 15 00  	addi	a2, a0, 1
80400836: 93 ff ff 03  	andi	t6, t6, 63
8040083a: 32 85        	mv	a0, a2
8040083c: 19 a0        	j	0x80400842 <_ZN4core3fmt9Formatter3pad17h6caadcb24b9dd819E+0xce>
8040083e: 81 4f        	mv	t6, zero
80400840: 3e 86        	mv	a2, a5
80400842: 4a 07        	slli	a4, a4, 18
80400844: 33 7a 07 01  	and	s4, a4, a6
80400848: 13 97 ce 00  	slli	a4, t4, 12
8040084c: 93 1e 6f 00  	slli	t4, t5, 6
80400850: 33 67 47 01  	or	a4, a4, s4
80400854: 33 67 d7 01  	or	a4, a4, t4
80400858: 33 67 f7 01  	or	a4, a4, t6
8040085c: e3 1f 17 f7  	bne	a4, a7, 0x804007da <_ZN4core3fmt9Formatter3pad17h6caadcb24b9dd819E+0x66>
80400860: 95 a0        	j	0x804008c4 <_ZN4core3fmt9Formatter3pad17h6caadcb24b9dd819E+0x150>
80400862: 4a 85        	mv	a0, s2
80400864: 63 00 f5 06  	beq	a0, a5, 0x804008c4 <_ZN4core3fmt9Formatter3pad17h6caadcb24b9dd819E+0x150>
80400868: 03 06 05 00  	lb	a2, 0(a0)
8040086c: fd 56        	addi	a3, zero, -1
8040086e: 63 d7 c6 02  	bge	a3, a2, 0x8040089c <_ZN4core3fmt9Formatter3pad17h6caadcb24b9dd819E+0x128>
80400872: 13 b5 15 00  	seqz	a0, a1
80400876: 33 c6 35 01  	xor	a2, a1, s3
8040087a: 13 36 16 00  	seqz	a2, a2
8040087e: 51 8d        	or	a0, a0, a2
80400880: 19 e9        	bnez	a0, 0x80400896 <_ZN4core3fmt9Formatter3pad17h6caadcb24b9dd819E+0x122>
80400882: 63 fd 35 03  	bgeu	a1, s3, 0x804008bc <_ZN4core3fmt9Formatter3pad17h6caadcb24b9dd819E+0x148>
80400886: 33 05 b9 00  	add	a0, s2, a1
8040088a: 03 05 05 00  	lb	a0, 0(a0)
8040088e: 13 06 00 fc  	addi	a2, zero, -64
80400892: 63 45 c5 02  	blt	a0, a2, 0x804008bc <_ZN4core3fmt9Formatter3pad17h6caadcb24b9dd819E+0x148>
80400896: 4a 85        	mv	a0, s2
80400898: 05 e5        	bnez	a0, 0x804008c0 <_ZN4core3fmt9Formatter3pad17h6caadcb24b9dd819E+0x14c>
8040089a: 2d a0        	j	0x804008c4 <_ZN4core3fmt9Formatter3pad17h6caadcb24b9dd819E+0x150>
8040089c: 13 07 15 00  	addi	a4, a0, 1
804008a0: 93 76 f6 0f  	andi	a3, a2, 255
804008a4: 63 01 f7 12  	beq	a4, a5, 0x804009c6 <_ZN4core3fmt9Formatter3pad17h6caadcb24b9dd819E+0x252>
804008a8: 03 46 15 00  	lbu	a2, 1(a0)
804008ac: 09 05        	addi	a0, a0, 2
804008ae: 13 76 f6 03  	andi	a2, a2, 63
804008b2: 13 07 00 0e  	addi	a4, zero, 224
804008b6: 63 fe e6 10  	bgeu	a3, a4, 0x804009d2 <_ZN4core3fmt9Formatter3pad17h6caadcb24b9dd819E+0x25e>
804008ba: 65 bf        	j	0x80400872 <_ZN4core3fmt9Formatter3pad17h6caadcb24b9dd819E+0xfe>
804008bc: 01 45        	mv	a0, zero
804008be: 19 c1        	beqz	a0, 0x804008c4 <_ZN4core3fmt9Formatter3pad17h6caadcb24b9dd819E+0x150>
804008c0: 2a 89        	mv	s2, a0
804008c2: ae 89        	mv	s3, a1
804008c4: 63 89 02 06  	beqz	t0, 0x80400936 <_ZN4core3fmt9Formatter3pad17h6caadcb24b9dd819E+0x1c2>
804008c8: 63 84 09 04  	beqz	s3, 0x80400910 <_ZN4core3fmt9Formatter3pad17h6caadcb24b9dd819E+0x19c>
804008cc: 81 45        	mv	a1, zero
804008ce: 4e 85        	mv	a0, s3
804008d0: 4a 86        	mv	a2, s2
804008d2: 83 46 06 00  	lbu	a3, 0(a2)
804008d6: 05 06        	addi	a2, a2, 1
804008d8: 93 f6 06 0c  	andi	a3, a3, 192
804008dc: 93 86 06 f8  	addi	a3, a3, -128
804008e0: b3 36 d0 00  	snez	a3, a3
804008e4: 7d 15        	addi	a0, a0, -1
804008e6: b6 95        	add	a1, a1, a3
804008e8: 6d f5        	bnez	a0, 0x804008d2 <_ZN4core3fmt9Formatter3pad17h6caadcb24b9dd819E+0x15e>
804008ea: 08 64        	ld	a0, 8(s0)
804008ec: 63 f5 a5 04  	bgeu	a1, a0, 0x80400936 <_ZN4core3fmt9Formatter3pad17h6caadcb24b9dd819E+0x1c2>
804008f0: 81 45        	mv	a1, zero
804008f2: 4e 86        	mv	a2, s3
804008f4: ca 86        	mv	a3, s2
804008f6: 03 c7 06 00  	lbu	a4, 0(a3)
804008fa: 85 06        	addi	a3, a3, 1
804008fc: 13 77 07 0c  	andi	a4, a4, 192
80400900: 13 07 07 f8  	addi	a4, a4, -128
80400904: 33 37 e0 00  	snez	a4, a4
80400908: 7d 16        	addi	a2, a2, -1
8040090a: ba 95        	add	a1, a1, a4
8040090c: 6d f6        	bnez	a2, 0x804008f6 <_ZN4core3fmt9Formatter3pad17h6caadcb24b9dd819E+0x182>
8040090e: 21 a0        	j	0x80400916 <_ZN4core3fmt9Formatter3pad17h6caadcb24b9dd819E+0x1a2>
80400910: 08 64        	ld	a0, 8(s0)
80400912: 81 45        	mv	a1, zero
80400914: 0d c1        	beqz	a0, 0x80400936 <_ZN4core3fmt9Formatter3pad17h6caadcb24b9dd819E+0x1c2>
80400916: 03 46 84 03  	lbu	a2, 56(s0)
8040091a: 0d 47        	addi	a4, zero, 3
8040091c: 81 46        	mv	a3, zero
8040091e: 63 03 e6 00  	beq	a2, a4, 0x80400924 <_ZN4core3fmt9Formatter3pad17h6caadcb24b9dd819E+0x1b0>
80400922: b2 86        	mv	a3, a2
80400924: 13 f6 36 00  	andi	a2, a3, 3
80400928: 0d 8d        	sub	a0, a0, a1
8040092a: 05 c6        	beqz	a2, 0x80400952 <_ZN4core3fmt9Formatter3pad17h6caadcb24b9dd819E+0x1de>
8040092c: 85 45        	addi	a1, zero, 1
8040092e: 63 15 b6 02  	bne	a2, a1, 0x80400958 <_ZN4core3fmt9Formatter3pad17h6caadcb24b9dd819E+0x1e4>
80400932: 81 4a        	mv	s5, zero
80400934: 3d a0        	j	0x80400962 <_ZN4core3fmt9Formatter3pad17h6caadcb24b9dd819E+0x1ee>
80400936: 0c 74        	ld	a1, 40(s0)
80400938: 08 70        	ld	a0, 32(s0)
8040093a: 9c 6d        	ld	a5, 24(a1)
8040093c: ca 85        	mv	a1, s2
8040093e: 4e 86        	mv	a2, s3
80400940: a2 6a        	ld	s5, 8(sp)
80400942: 42 6a        	ld	s4, 16(sp)
80400944: e2 69        	ld	s3, 24(sp)
80400946: 02 79        	ld	s2, 32(sp)
80400948: a2 74        	ld	s1, 40(sp)
8040094a: 42 74        	ld	s0, 48(sp)
8040094c: e2 70        	ld	ra, 56(sp)
8040094e: 21 61        	addi	sp, sp, 64
80400950: 82 87        	jr	a5
80400952: aa 8a        	mv	s5, a0
80400954: 01 45        	mv	a0, zero
80400956: 31 a0        	j	0x80400962 <_ZN4core3fmt9Formatter3pad17h6caadcb24b9dd819E+0x1ee>
80400958: 93 05 15 00  	addi	a1, a0, 1
8040095c: 05 81        	srli	a0, a0, 1
8040095e: 93 da 15 00  	srli	s5, a1, 1
80400962: 93 04 15 00  	addi	s1, a0, 1
80400966: fd 14        	addi	s1, s1, -1
80400968: 89 c8        	beqz	s1, 0x8040097a <_ZN4core3fmt9Formatter3pad17h6caadcb24b9dd819E+0x206>
8040096a: 0c 74        	ld	a1, 40(s0)
8040096c: 08 70        	ld	a0, 32(s0)
8040096e: 90 71        	ld	a2, 32(a1)
80400970: 4c 58        	lw	a1, 52(s0)
80400972: 02 96        	jalr	a2
80400974: 6d d9        	beqz	a0, 0x80400966 <_ZN4core3fmt9Formatter3pad17h6caadcb24b9dd819E+0x1f2>
80400976: 05 45        	addi	a0, zero, 1
80400978: 35 a8        	j	0x804009b4 <_ZN4core3fmt9Formatter3pad17h6caadcb24b9dd819E+0x240>
8040097a: 0c 74        	ld	a1, 40(s0)
8040097c: 03 6a 44 03  	lwu	s4, 52(s0)
80400980: 08 70        	ld	a0, 32(s0)
80400982: 94 6d        	ld	a3, 24(a1)
80400984: ca 85        	mv	a1, s2
80400986: 4e 86        	mv	a2, s3
80400988: 82 96        	jalr	a3
8040098a: aa 85        	mv	a1, a0
8040098c: 05 45        	addi	a0, zero, 1
8040098e: 9d e1        	bnez	a1, 0x804009b4 <_ZN4core3fmt9Formatter3pad17h6caadcb24b9dd819E+0x240>
80400990: 03 39 04 02  	ld	s2, 32(s0)
80400994: 00 74        	ld	s0, 40(s0)
80400996: 81 44        	mv	s1, zero
80400998: 63 8b 9a 00  	beq	s5, s1, 0x804009ae <_ZN4core3fmt9Formatter3pad17h6caadcb24b9dd819E+0x23a>
8040099c: 10 70        	ld	a2, 32(s0)
8040099e: 85 04        	addi	s1, s1, 1
804009a0: 4a 85        	mv	a0, s2
804009a2: d2 85        	mv	a1, s4
804009a4: 02 96        	jalr	a2
804009a6: 6d d9        	beqz	a0, 0x80400998 <_ZN4core3fmt9Formatter3pad17h6caadcb24b9dd819E+0x224>
804009a8: 13 85 f4 ff  	addi	a0, s1, -1
804009ac: 11 a0        	j	0x804009b0 <_ZN4core3fmt9Formatter3pad17h6caadcb24b9dd819E+0x23c>
804009ae: 56 85        	mv	a0, s5
804009b0: 33 35 55 01  	sltu	a0, a0, s5
804009b4: a2 6a        	ld	s5, 8(sp)
804009b6: 42 6a        	ld	s4, 16(sp)
804009b8: e2 69        	ld	s3, 24(sp)
804009ba: 02 79        	ld	s2, 32(sp)
804009bc: a2 74        	ld	s1, 40(sp)
804009be: 42 74        	ld	s0, 48(sp)
804009c0: e2 70        	ld	ra, 56(sp)
804009c2: 21 61        	addi	sp, sp, 64
804009c4: 82 80        	ret
804009c6: 01 46        	mv	a2, zero
804009c8: 3e 85        	mv	a0, a5
804009ca: 13 07 00 0e  	addi	a4, zero, 224
804009ce: e3 e2 e6 ea  	bltu	a3, a4, 0x80400872 <_ZN4core3fmt9Formatter3pad17h6caadcb24b9dd819E+0xfe>
804009d2: 63 0d f5 00  	beq	a0, a5, 0x804009ec <_ZN4core3fmt9Formatter3pad17h6caadcb24b9dd819E+0x278>
804009d6: 83 44 05 00  	lbu	s1, 0(a0)
804009da: 13 07 15 00  	addi	a4, a0, 1
804009de: 13 f5 f4 03  	andi	a0, s1, 63
804009e2: 93 04 00 0f  	addi	s1, zero, 240
804009e6: 63 f9 96 00  	bgeu	a3, s1, 0x804009f8 <_ZN4core3fmt9Formatter3pad17h6caadcb24b9dd819E+0x284>
804009ea: 61 b5        	j	0x80400872 <_ZN4core3fmt9Formatter3pad17h6caadcb24b9dd819E+0xfe>
804009ec: 01 45        	mv	a0, zero
804009ee: 3e 87        	mv	a4, a5
804009f0: 93 04 00 0f  	addi	s1, zero, 240
804009f4: e3 ef 96 e6  	bltu	a3, s1, 0x80400872 <_ZN4core3fmt9Formatter3pad17h6caadcb24b9dd819E+0xfe>
804009f8: 63 07 f7 00  	beq	a4, a5, 0x80400a06 <_ZN4core3fmt9Formatter3pad17h6caadcb24b9dd819E+0x292>
804009fc: 03 47 07 00  	lbu	a4, 0(a4)
80400a00: 13 77 f7 03  	andi	a4, a4, 63
80400a04: 11 a0        	j	0x80400a08 <_ZN4core3fmt9Formatter3pad17h6caadcb24b9dd819E+0x294>
80400a06: 01 47        	mv	a4, zero
80400a08: ca 06        	slli	a3, a3, 18
80400a0a: b7 07 1c 00  	lui	a5, 448
80400a0e: fd 8e        	and	a3, a3, a5
80400a10: 32 06        	slli	a2, a2, 12
80400a12: 1a 05        	slli	a0, a0, 6
80400a14: 55 8e        	or	a2, a2, a3
80400a16: 51 8d        	or	a0, a0, a2
80400a18: 59 8d        	or	a0, a0, a4
80400a1a: 37 06 11 00  	lui	a2, 272
80400a1e: e3 03 c5 ea  	beq	a0, a2, 0x804008c4 <_ZN4core3fmt9Formatter3pad17h6caadcb24b9dd819E+0x150>
80400a22: 81 bd        	j	0x80400872 <_ZN4core3fmt9Formatter3pad17h6caadcb24b9dd819E+0xfe>

0000000080400a24 <_ZN42_$LT$str$u20$as$u20$core..fmt..Display$GT$3fmt17h1a37b3cbeab92db5E>:
80400a24: ae 86        	mv	a3, a1
80400a26: aa 85        	mv	a1, a0
80400a28: 32 85        	mv	a0, a2
80400a2a: 36 86        	mv	a2, a3
80400a2c: 17 03 00 00  	auipc	t1, 0
80400a30: 67 00 83 d4  	jr	-696(t1)

0000000080400a34 <_ZN4core3fmt3num3imp52_$LT$impl$u20$core..fmt..Display$u20$for$u20$u32$GT$3fmt17h26b792e77c58b22dE>:
80400a34: 5d 71        	addi	sp, sp, -80
80400a36: 86 e4        	sd	ra, 72(sp)
80400a38: a2 e0        	sd	s0, 64(sp)
80400a3a: 26 fc        	sd	s1, 56(sp)
80400a3c: 4a f8        	sd	s2, 48(sp)
80400a3e: 03 69 05 00  	lwu	s2, 0(a0)
80400a42: 2e 85        	mv	a0, a1
80400a44: 93 55 49 00  	srli	a1, s2, 4
80400a48: 93 06 70 02  	addi	a3, zero, 39
80400a4c: 13 07 10 27  	addi	a4, zero, 625

0000000080400a50 <.LBB481_10>:
80400a50: 17 08 00 00  	auipc	a6, 0
80400a54: 13 08 88 4a  	addi	a6, a6, 1192
80400a58: 63 f3 e5 02  	bgeu	a1, a4, 0x80400a7e <.LBB481_10+0x2e>
80400a5c: 93 05 30 06  	addi	a1, zero, 99
80400a60: 63 e0 25 0f  	bltu	a1, s2, 0x80400b40 <.LBB481_10+0xf0>
80400a64: a5 45        	addi	a1, zero, 9
80400a66: 63 cd 25 13  	blt	a1, s2, 0x80400ba0 <.LBB481_10+0x150>
80400a6a: 93 85 f6 ff  	addi	a1, a3, -1
80400a6e: 13 06 91 00  	addi	a2, sp, 9
80400a72: 2e 96        	add	a2, a2, a1
80400a74: 93 06 09 03  	addi	a3, s2, 48
80400a78: 23 00 d6 00  	sb	a3, 0(a2)
80400a7c: 91 a2        	j	0x80400bc0 <.LBB481_10+0x170>
80400a7e: 81 46        	mv	a3, zero
80400a80: b7 35 1a 00  	lui	a1, 419
80400a84: 9b 85 35 6e  	addiw	a1, a1, 1763
80400a88: ba 05        	slli	a1, a1, 14
80400a8a: 93 85 75 ac  	addi	a1, a1, -1337
80400a8e: ba 05        	slli	a1, a1, 14
80400a90: 93 85 35 43  	addi	a1, a1, 1075
80400a94: b6 05        	slli	a1, a1, 13
80400a96: 93 88 b5 94  	addi	a7, a1, -1717
80400a9a: 89 65        	lui	a1, 2
80400a9c: 1b 83 05 71  	addiw	t1, a1, 1808
80400aa0: c1 65        	lui	a1, 16
80400aa2: 1b 8e c5 ff  	addiw	t3, a1, -4
80400aa6: 37 f7 51 00  	lui	a4, 1311
80400aaa: 1b 07 57 b8  	addiw	a4, a4, -1147
80400aae: 36 07        	slli	a4, a4, 13
80400ab0: 13 07 77 3d  	addi	a4, a4, 983
80400ab4: 3a 07        	slli	a4, a4, 14
80400ab6: 13 07 f7 28  	addi	a4, a4, 655
80400aba: 32 07        	slli	a4, a4, 12
80400abc: 93 0e 37 5c  	addi	t4, a4, 1475
80400ac0: 93 02 40 06  	addi	t0, zero, 100
80400ac4: 1b 8f e5 ff  	addiw	t5, a1, -2
80400ac8: 93 03 91 00  	addi	t2, sp, 9
80400acc: b7 e5 f5 05  	lui	a1, 24414
80400ad0: 9b 8f f5 0f  	addiw	t6, a1, 255
80400ad4: 4a 86        	mv	a2, s2
80400ad6: b3 37 19 03  	mulhu	a5, s2, a7
80400ada: 13 d9 b7 00  	srli	s2, a5, 11
80400ade: 33 07 69 02  	mul	a4, s2, t1
80400ae2: 33 07 e6 40  	sub	a4, a2, a4
80400ae6: b3 75 c7 01  	and	a1, a4, t3
80400aea: 89 81        	srli	a1, a1, 2
80400aec: b3 b5 d5 03  	mulhu	a1, a1, t4
80400af0: 89 81        	srli	a1, a1, 2
80400af2: 13 94 15 00  	slli	s0, a1, 1
80400af6: b3 85 55 02  	mul	a1, a1, t0
80400afa: b3 05 b7 40  	sub	a1, a4, a1
80400afe: 86 05        	slli	a1, a1, 1
80400b00: b3 f5 e5 01  	and	a1, a1, t5
80400b04: 33 07 04 01  	add	a4, s0, a6
80400b08: 33 84 d3 00  	add	s0, t2, a3
80400b0c: 83 44 07 00  	lbu	s1, 0(a4)
80400b10: 03 07 17 00  	lb	a4, 1(a4)
80400b14: c2 95        	add	a1, a1, a6
80400b16: 83 87 15 00  	lb	a5, 1(a1)
80400b1a: 83 c5 05 00  	lbu	a1, 0(a1)
80400b1e: 23 02 e4 02  	sb	a4, 36(s0)
80400b22: a3 01 94 02  	sb	s1, 35(s0)
80400b26: 23 03 f4 02  	sb	a5, 38(s0)
80400b2a: a3 02 b4 02  	sb	a1, 37(s0)
80400b2e: f1 16        	addi	a3, a3, -4
80400b30: e3 e2 cf fa  	bltu	t6, a2, 0x80400ad4 <.LBB481_10+0x84>
80400b34: 93 86 76 02  	addi	a3, a3, 39
80400b38: 93 05 30 06  	addi	a1, zero, 99
80400b3c: e3 f4 25 f3  	bgeu	a1, s2, 0x80400a64 <.LBB481_10+0x14>
80400b40: c1 65        	lui	a1, 16
80400b42: 1b 86 c5 ff  	addiw	a2, a1, -4
80400b46: 33 76 c9 00  	and	a2, s2, a2
80400b4a: 09 82        	srli	a2, a2, 2
80400b4c: 37 f7 51 00  	lui	a4, 1311
80400b50: 1b 07 57 b8  	addiw	a4, a4, -1147
80400b54: 36 07        	slli	a4, a4, 13
80400b56: 13 07 77 3d  	addi	a4, a4, 983
80400b5a: 3a 07        	slli	a4, a4, 14
80400b5c: 13 07 f7 28  	addi	a4, a4, 655
80400b60: 32 07        	slli	a4, a4, 12
80400b62: 13 07 37 5c  	addi	a4, a4, 1475
80400b66: 33 36 e6 02  	mulhu	a2, a2, a4
80400b6a: 09 82        	srli	a2, a2, 2
80400b6c: 13 07 40 06  	addi	a4, zero, 100
80400b70: 33 07 e6 02  	mul	a4, a2, a4
80400b74: 33 07 e9 40  	sub	a4, s2, a4
80400b78: 06 07        	slli	a4, a4, 1
80400b7a: f9 35        	addiw	a1, a1, -2
80400b7c: f9 8d        	and	a1, a1, a4
80400b7e: f9 16        	addi	a3, a3, -2
80400b80: c2 95        	add	a1, a1, a6
80400b82: 03 87 15 00  	lb	a4, 1(a1)
80400b86: 83 c5 05 00  	lbu	a1, 0(a1)
80400b8a: 93 07 91 00  	addi	a5, sp, 9
80400b8e: b6 97        	add	a5, a5, a3
80400b90: a3 80 e7 00  	sb	a4, 1(a5)
80400b94: 23 80 b7 00  	sb	a1, 0(a5)
80400b98: 32 89        	mv	s2, a2
80400b9a: a5 45        	addi	a1, zero, 9
80400b9c: e3 d7 25 ed  	bge	a1, s2, 0x80400a6a <.LBB481_10+0x1a>
80400ba0: 13 16 19 00  	slli	a2, s2, 1
80400ba4: 93 85 e6 ff  	addi	a1, a3, -2
80400ba8: 42 96        	add	a2, a2, a6
80400baa: 83 06 16 00  	lb	a3, 1(a2)
80400bae: 03 46 06 00  	lbu	a2, 0(a2)
80400bb2: 13 07 91 00  	addi	a4, sp, 9
80400bb6: 2e 97        	add	a4, a4, a1
80400bb8: a3 00 d7 00  	sb	a3, 1(a4)
80400bbc: 23 00 c7 00  	sb	a2, 0(a4)
80400bc0: 13 06 91 00  	addi	a2, sp, 9
80400bc4: 33 07 b6 00  	add	a4, a2, a1
80400bc8: 13 06 70 02  	addi	a2, zero, 39
80400bcc: b3 07 b6 40  	sub	a5, a2, a1

0000000080400bd0 <.LBB481_11>:
80400bd0: 17 06 00 00  	auipc	a2, 0
80400bd4: 13 06 06 2e  	addi	a2, a2, 736
80400bd8: 85 45        	addi	a1, zero, 1
80400bda: 81 46        	mv	a3, zero
80400bdc: 97 00 00 00  	auipc	ra, 0
80400be0: e7 80 60 91  	jalr	-1770(ra)
80400be4: 42 79        	ld	s2, 48(sp)
80400be6: e2 74        	ld	s1, 56(sp)
80400be8: 06 64        	ld	s0, 64(sp)
80400bea: a6 60        	ld	ra, 72(sp)
80400bec: 61 61        	addi	sp, sp, 80
80400bee: 82 80        	ret

0000000080400bf0 <_ZN53_$LT$core..fmt..Error$u20$as$u20$core..fmt..Debug$GT$3fmt17hd43fac14153e802eE>:
80400bf0: 90 75        	ld	a2, 40(a1)
80400bf2: 88 71        	ld	a0, 32(a1)
80400bf4: 1c 6e        	ld	a5, 24(a2)

0000000080400bf6 <.LBB507_1>:
80400bf6: 97 05 00 00  	auipc	a1, 0
80400bfa: 93 85 a5 3c  	addi	a1, a1, 970
80400bfe: 15 46        	addi	a2, zero, 5
80400c00: 82 87        	jr	a5

0000000080400c02 <_ZN42_$LT$$RF$T$u20$as$u20$core..fmt..Debug$GT$3fmt17h758e3f53ccb23119E>:
80400c02: 10 65        	ld	a2, 8(a0)
80400c04: 08 61        	ld	a0, 0(a0)
80400c06: 1c 6e        	ld	a5, 24(a2)
80400c08: 82 87        	jr	a5

0000000080400c0a <_ZN44_$LT$$RF$T$u20$as$u20$core..fmt..Display$GT$3fmt17hb22133bba984cf24E>:
80400c0a: 14 61        	ld	a3, 0(a0)
80400c0c: 10 65        	ld	a2, 8(a0)
80400c0e: 2e 85        	mv	a0, a1
80400c10: b6 85        	mv	a1, a3
80400c12: 17 03 00 00  	auipc	t1, 0
80400c16: 67 00 23 b6  	jr	-1182(t1)

0000000080400c1a <rust_begin_unwind>:
80400c1a: 71 71        	addi	sp, sp, -176
80400c1c: 06 f5        	sd	ra, 168(sp)
80400c1e: 22 f1        	sd	s0, 160(sp)
80400c20: 26 ed        	sd	s1, 152(sp)
80400c22: 4a e9        	sd	s2, 144(sp)
80400c24: 00 19        	addi	s0, sp, 176
80400c26: 2a 89        	mv	s2, a0
80400c28: 97 f0 ff ff  	auipc	ra, 1048575
80400c2c: e7 80 20 6b  	jalr	1714(ra)
80400c30: 45 cd        	beqz	a0, 0x80400ce8 <.LBB0_14+0x1c>
80400c32: aa 84        	mv	s1, a0
80400c34: 97 f0 ff ff  	auipc	ra, 1048575
80400c38: e7 80 a0 6a  	jalr	1706(ra)
80400c3c: 23 34 a4 f8  	sd	a0, -120(s0)
80400c40: 23 38 b4 f8  	sd	a1, -112(s0)
80400c44: 26 85        	mv	a0, s1
80400c46: 97 f0 ff ff  	auipc	ra, 1048575
80400c4a: e7 80 00 6a  	jalr	1696(ra)
80400c4e: 23 2e a4 f8  	sw	a0, -100(s0)
80400c52: 4a 85        	mv	a0, s2
80400c54: 97 f0 ff ff  	auipc	ra, 1048575
80400c58: e7 80 20 68  	jalr	1666(ra)
80400c5c: 63 00 05 12  	beqz	a0, 0x80400d7c <.LBB0_21>
80400c60: 23 30 a4 fa  	sd	a0, -96(s0)
80400c64: 13 05 84 f8  	addi	a0, s0, -120
80400c68: 23 3c a4 f4  	sd	a0, -168(s0)

0000000080400c6c <.LBB0_10>:
80400c6c: 17 05 00 00  	auipc	a0, 0
80400c70: 13 05 05 14  	addi	a0, a0, 320
80400c74: 23 30 a4 f6  	sd	a0, -160(s0)
80400c78: 13 05 c4 f9  	addi	a0, s0, -100
80400c7c: 23 34 a4 f6  	sd	a0, -152(s0)

0000000080400c80 <.LBB0_11>:
80400c80: 17 05 00 00  	auipc	a0, 0
80400c84: 13 05 45 db  	addi	a0, a0, -588
80400c88: 23 38 a4 f6  	sd	a0, -144(s0)
80400c8c: 13 05 04 fa  	addi	a0, s0, -96
80400c90: 23 3c a4 f6  	sd	a0, -136(s0)

0000000080400c94 <.LBB0_12>:
80400c94: 17 05 00 00  	auipc	a0, 0
80400c98: 13 05 a5 13  	addi	a0, a0, 314
80400c9c: 23 30 a4 f8  	sd	a0, -128(s0)
80400ca0: 13 05 04 fb  	addi	a0, s0, -80
80400ca4: 23 34 a4 fa  	sd	a0, -88(s0)

0000000080400ca8 <.LBB0_13>:
80400ca8: 17 05 00 00  	auipc	a0, 0
80400cac: 13 05 85 3b  	addi	a0, a0, 952
80400cb0: 23 38 a4 fa  	sd	a0, -80(s0)
80400cb4: 11 45        	addi	a0, zero, 4
80400cb6: 23 3c a4 fa  	sd	a0, -72(s0)
80400cba: 23 30 04 fc  	sd	zero, -64(s0)
80400cbe: 13 05 84 f5  	addi	a0, s0, -168
80400cc2: 23 38 a4 fc  	sd	a0, -48(s0)
80400cc6: 0d 45        	addi	a0, zero, 3
80400cc8: 23 3c a4 fc  	sd	a0, -40(s0)

0000000080400ccc <.LBB0_14>:
80400ccc: 97 05 00 00  	auipc	a1, 0
80400cd0: 93 85 c5 13  	addi	a1, a1, 316
80400cd4: 13 05 84 fa  	addi	a0, s0, -88
80400cd8: 13 06 04 fb  	addi	a2, s0, -80
80400cdc: 97 f0 ff ff  	auipc	ra, 1048575
80400ce0: e7 80 40 69  	jalr	1684(ra)
80400ce4: 3d e5        	bnez	a0, 0x80400d52 <.LBB0_18>
80400ce6: 01 a0        	j	0x80400ce6 <.LBB0_14+0x1a>
80400ce8: 4a 85        	mv	a0, s2
80400cea: 97 f0 ff ff  	auipc	ra, 1048575
80400cee: e7 80 c0 5e  	jalr	1516(ra)
80400cf2: 51 cd        	beqz	a0, 0x80400d8e <.LBB0_23>
80400cf4: 23 34 a4 fa  	sd	a0, -88(s0)
80400cf8: 13 05 84 fa  	addi	a0, s0, -88
80400cfc: 23 3c a4 f4  	sd	a0, -168(s0)

0000000080400d00 <.LBB0_15>:
80400d00: 17 05 00 00  	auipc	a0, 0
80400d04: 13 05 e5 0c  	addi	a0, a0, 206
80400d08: 23 30 a4 f6  	sd	a0, -160(s0)
80400d0c: 13 05 04 fb  	addi	a0, s0, -80
80400d10: 23 34 a4 f8  	sd	a0, -120(s0)

0000000080400d14 <.LBB0_16>:
80400d14: 17 05 00 00  	auipc	a0, 0
80400d18: 13 05 c5 2e  	addi	a0, a0, 748
80400d1c: 23 38 a4 fa  	sd	a0, -80(s0)
80400d20: 09 45        	addi	a0, zero, 2
80400d22: 23 3c a4 fa  	sd	a0, -72(s0)
80400d26: 23 30 04 fc  	sd	zero, -64(s0)
80400d2a: 13 05 84 f5  	addi	a0, s0, -168
80400d2e: 23 38 a4 fc  	sd	a0, -48(s0)
80400d32: 05 45        	addi	a0, zero, 1
80400d34: 23 3c a4 fc  	sd	a0, -40(s0)

0000000080400d38 <.LBB0_17>:
80400d38: 97 05 00 00  	auipc	a1, 0
80400d3c: 93 85 05 0d  	addi	a1, a1, 208
80400d40: 13 05 84 f8  	addi	a0, s0, -120
80400d44: 13 06 04 fb  	addi	a2, s0, -80
80400d48: 97 f0 ff ff  	auipc	ra, 1048575
80400d4c: e7 80 80 62  	jalr	1576(ra)
80400d50: 59 d9        	beqz	a0, 0x80400ce6 <.LBB0_14+0x1a>

0000000080400d52 <.LBB0_18>:
80400d52: 17 05 00 00  	auipc	a0, 0
80400d56: 13 05 65 0e  	addi	a0, a0, 230

0000000080400d5a <.LBB0_19>:
80400d5a: 97 06 00 00  	auipc	a3, 0
80400d5e: 93 86 e6 10  	addi	a3, a3, 270

0000000080400d62 <.LBB0_20>:
80400d62: 17 07 00 00  	auipc	a4, 0
80400d66: 13 07 67 13  	addi	a4, a4, 310
80400d6a: 93 05 b0 02  	addi	a1, zero, 43
80400d6e: 13 06 04 fb  	addi	a2, s0, -80
80400d72: 97 f0 ff ff  	auipc	ra, 1048575
80400d76: e7 80 80 51  	jalr	1304(ra)
80400d7a: 00 00        	unimp	

0000000080400d7c <.LBB0_21>:
80400d7c: 17 05 00 00  	auipc	a0, 0
80400d80: 13 05 95 24  	addi	a0, a0, 585

0000000080400d84 <.LBB0_22>:
80400d84: 17 06 00 00  	auipc	a2, 0
80400d88: 13 06 c6 31  	addi	a2, a2, 796
80400d8c: 09 a8        	j	0x80400d9e <.LBB0_24+0x8>

0000000080400d8e <.LBB0_23>:
80400d8e: 17 05 00 00  	auipc	a0, 0
80400d92: 13 05 75 23  	addi	a0, a0, 567

0000000080400d96 <.LBB0_24>:
80400d96: 17 06 00 00  	auipc	a2, 0
80400d9a: 13 06 26 2a  	addi	a2, a2, 674
80400d9e: 93 05 b0 02  	addi	a1, zero, 43
80400da2: 97 f0 ff ff  	auipc	ra, 1048575
80400da6: e7 80 80 54  	jalr	1352(ra)
80400daa: 00 00        	unimp	

0000000080400dac <_ZN44_$LT$$RF$T$u20$as$u20$core..fmt..Display$GT$3fmt17h00eaf9c7fdcfd0bbE>:
80400dac: 41 11        	addi	sp, sp, -16
80400dae: 06 e4        	sd	ra, 8(sp)
80400db0: 22 e0        	sd	s0, 0(sp)
80400db2: 00 08        	addi	s0, sp, 16
80400db4: 10 61        	ld	a2, 0(a0)
80400db6: 14 65        	ld	a3, 8(a0)
80400db8: 2e 87        	mv	a4, a1
80400dba: 32 85        	mv	a0, a2
80400dbc: b6 85        	mv	a1, a3
80400dbe: 3a 86        	mv	a2, a4
80400dc0: 02 64        	ld	s0, 0(sp)
80400dc2: a2 60        	ld	ra, 8(sp)
80400dc4: 41 01        	addi	sp, sp, 16
80400dc6: 17 03 00 00  	auipc	t1, 0
80400dca: 67 00 e3 c5  	jr	-930(t1)

0000000080400dce <_ZN44_$LT$$RF$T$u20$as$u20$core..fmt..Display$GT$3fmt17ha763ecf885ad0a6bE>:
80400dce: 41 11        	addi	sp, sp, -16
80400dd0: 06 e4        	sd	ra, 8(sp)
80400dd2: 22 e0        	sd	s0, 0(sp)
80400dd4: 00 08        	addi	s0, sp, 16
80400dd6: 08 61        	ld	a0, 0(a0)
80400dd8: 02 64        	ld	s0, 0(sp)
80400dda: a2 60        	ld	ra, 8(sp)
80400ddc: 41 01        	addi	sp, sp, 16
80400dde: 17 f3 ff ff  	auipc	t1, 1048575
80400de2: 67 00 03 56  	jr	1376(t1)
